target datalayout = "e-m:e-p270:32:32-p271:32:32-p272:64:64-i64:64-i128:128-f80:128-n8:16:32:64-S128"
target triple = "x86_64-pc-linux-gnu"

%struct.H5HG_t = type { i64, i64 }
%struct.H5VL_blob_specific_args_t = type { i32, %union.anon }
%union.anon = type { %struct.anon }
%struct.anon = type { ptr }

@.str = private unnamed_addr constant [109 x i8] c"generated/home/dtcxzyw/WorkSpace/Projects/compilers/llvm-opt-benchmark/bench/hdf5/hdf5/src/H5VLnative_blob.c\00", align 1
@H5E_VOL_g = external global i64, align 8
@__func__.H5VL__native_blob_specific = private unnamed_addr constant [27 x i8] c"H5VL__native_blob_specific\00", align 1
@H5E_CANTREMOVE_g = external global i64, align 8
@.str.5 = private unnamed_addr constant [29 x i8] c"unable to remove heap object\00", align 1
@H5E_UNSUPPORTED_g = external global i64, align 8
@.str.6 = private unnamed_addr constant [27 x i8] c"invalid specific operation\00", align 1

; Function Attrs: nounwind uwtable
define i32 @H5VL__native_blob_specific(ptr noundef %0, ptr noundef %1, ptr noundef %2) #0 {
  %4 = alloca i32, align 4
  %5 = alloca ptr, align 8
  %6 = alloca ptr, align 8
  %7 = alloca ptr, align 8
  %8 = alloca ptr, align 8
  %9 = alloca i32, align 4
  %10 = alloca i8, align 1
  %11 = alloca ptr, align 8
  %12 = alloca i64, align 8
  %13 = alloca ptr, align 8
  %14 = alloca ptr, align 8
  %15 = alloca %struct.H5HG_t, align 8
  %16 = alloca i32, align 4
  store ptr %0, ptr %5, align 8, !tbaa !3
  store ptr %1, ptr %6, align 8, !tbaa !3
  store ptr %2, ptr %7, align 8, !tbaa !23
  call void @llvm.lifetime.start.p0(i64 8, ptr %8) #3
  %17 = load ptr, ptr %5, align 8, !tbaa !3
  store ptr %17, ptr %8, align 8, !tbaa !9
  call void @llvm.lifetime.start.p0(i64 4, ptr %9) #3
  store i32 0, ptr %9, align 4, !tbaa !13
  call void @llvm.lifetime.start.p0(i64 1, ptr %10) #3
  store i8 0, ptr %10, align 1, !tbaa !15
  %18 = load ptr, ptr %7, align 8, !tbaa !23
  %19 = getelementptr inbounds nuw %struct.H5VL_blob_specific_args_t, ptr %18, i32 0, i32 0
  %20 = load i32, ptr %19, align 8, !tbaa !25
  switch i32 %20, label %129 [
    i32 1, label %21
    i32 2, label %33
    i32 0, label %51
  ]

21:                                               ; preds = %3
  call void @llvm.lifetime.start.p0(i64 8, ptr %11) #3
  %22 = load ptr, ptr %6, align 8, !tbaa !3
  store ptr %22, ptr %11, align 8, !tbaa !11
  call void @llvm.lifetime.start.p0(i64 8, ptr %12) #3
  %23 = load ptr, ptr %8, align 8, !tbaa !9
  call void @H5F_addr_decode(ptr noundef %23, ptr noundef %11, ptr noundef %12)
  %24 = load i64, ptr %12, align 8, !tbaa !7
  %25 = icmp eq i64 %24, 0
  %26 = select i1 %25, i32 1, i32 0
  %27 = icmp ne i32 %26, 0
  %28 = load ptr, ptr %7, align 8, !tbaa !23
  %29 = getelementptr inbounds nuw %struct.H5VL_blob_specific_args_t, ptr %28, i32 0, i32 1
  %30 = getelementptr inbounds nuw %struct.anon, ptr %29, i32 0, i32 0
  %31 = load ptr, ptr %30, align 8, !tbaa !22
  %32 = zext i1 %27 to i8
  store i8 %32, ptr %31, align 1, !tbaa !15
  call void @llvm.lifetime.end.p0(i64 8, ptr %12) #3
  call void @llvm.lifetime.end.p0(i64 8, ptr %11) #3
  br label %148

33:                                               ; preds = %3
  call void @llvm.lifetime.start.p0(i64 8, ptr %13) #3
  %34 = load ptr, ptr %6, align 8, !tbaa !3
  store ptr %34, ptr %13, align 8, !tbaa !11
  %35 = load ptr, ptr %8, align 8, !tbaa !9
  call void @H5F_addr_encode(ptr noundef %35, ptr noundef %13, i64 noundef 0)
  br label %36

36:                                               ; preds = %33
  %37 = load ptr, ptr %13, align 8, !tbaa !11
  store i8 0, ptr %37, align 1, !tbaa !22
  %38 = load ptr, ptr %13, align 8, !tbaa !11
  %39 = getelementptr inbounds nuw i8, ptr %38, i32 1
  store ptr %39, ptr %13, align 8, !tbaa !11
  %40 = load ptr, ptr %13, align 8, !tbaa !11
  store i8 0, ptr %40, align 1, !tbaa !22
  %41 = load ptr, ptr %13, align 8, !tbaa !11
  %42 = getelementptr inbounds nuw i8, ptr %41, i32 1
  store ptr %42, ptr %13, align 8, !tbaa !11
  %43 = load ptr, ptr %13, align 8, !tbaa !11
  store i8 0, ptr %43, align 1, !tbaa !22
  %44 = load ptr, ptr %13, align 8, !tbaa !11
  %45 = getelementptr inbounds nuw i8, ptr %44, i32 1
  store ptr %45, ptr %13, align 8, !tbaa !11
  %46 = load ptr, ptr %13, align 8, !tbaa !11
  store i8 0, ptr %46, align 1, !tbaa !22
  %47 = load ptr, ptr %13, align 8, !tbaa !11
  %48 = getelementptr inbounds nuw i8, ptr %47, i32 1
  store ptr %48, ptr %13, align 8, !tbaa !11
  br label %49

49:                                               ; preds = %36
  br label %50

50:                                               ; preds = %49
  call void @llvm.lifetime.end.p0(i64 8, ptr %13) #3
  br label %148

51:                                               ; preds = %3
  call void @llvm.lifetime.start.p0(i64 8, ptr %14) #3
  %52 = load ptr, ptr %6, align 8, !tbaa !3
  store ptr %52, ptr %14, align 8, !tbaa !11
  call void @llvm.lifetime.start.p0(i64 16, ptr %15) #3
  %53 = load ptr, ptr %8, align 8, !tbaa !9
  %54 = getelementptr inbounds nuw %struct.H5HG_t, ptr %15, i32 0, i32 0
  call void @H5F_addr_decode(ptr noundef %53, ptr noundef %14, ptr noundef %54)
  br label %55

55:                                               ; preds = %51
  %56 = load ptr, ptr %14, align 8, !tbaa !11
  %57 = load i8, ptr %56, align 1, !tbaa !22
  %58 = zext i8 %57 to i32
  %59 = and i32 %58, 255
  %60 = zext i32 %59 to i64
  %61 = getelementptr inbounds nuw %struct.H5HG_t, ptr %15, i32 0, i32 1
  store i64 %60, ptr %61, align 8, !tbaa !21
  %62 = load ptr, ptr %14, align 8, !tbaa !11
  %63 = getelementptr inbounds nuw i8, ptr %62, i32 1
  store ptr %63, ptr %14, align 8, !tbaa !11
  %64 = load ptr, ptr %14, align 8, !tbaa !11
  %65 = load i8, ptr %64, align 1, !tbaa !22
  %66 = zext i8 %65 to i32
  %67 = and i32 %66, 255
  %68 = shl i32 %67, 8
  %69 = zext i32 %68 to i64
  %70 = getelementptr inbounds nuw %struct.H5HG_t, ptr %15, i32 0, i32 1
  %71 = load i64, ptr %70, align 8, !tbaa !21
  %72 = or i64 %71, %69
  store i64 %72, ptr %70, align 8, !tbaa !21
  %73 = load ptr, ptr %14, align 8, !tbaa !11
  %74 = getelementptr inbounds nuw i8, ptr %73, i32 1
  store ptr %74, ptr %14, align 8, !tbaa !11
  %75 = load ptr, ptr %14, align 8, !tbaa !11
  %76 = load i8, ptr %75, align 1, !tbaa !22
  %77 = zext i8 %76 to i32
  %78 = and i32 %77, 255
  %79 = shl i32 %78, 16
  %80 = zext i32 %79 to i64
  %81 = getelementptr inbounds nuw %struct.H5HG_t, ptr %15, i32 0, i32 1
  %82 = load i64, ptr %81, align 8, !tbaa !21
  %83 = or i64 %82, %80
  store i64 %83, ptr %81, align 8, !tbaa !21
  %84 = load ptr, ptr %14, align 8, !tbaa !11
  %85 = getelementptr inbounds nuw i8, ptr %84, i32 1
  store ptr %85, ptr %14, align 8, !tbaa !11
  %86 = load ptr, ptr %14, align 8, !tbaa !11
  %87 = load i8, ptr %86, align 1, !tbaa !22
  %88 = zext i8 %87 to i32
  %89 = and i32 %88, 255
  %90 = shl i32 %89, 24
  %91 = zext i32 %90 to i64
  %92 = getelementptr inbounds nuw %struct.H5HG_t, ptr %15, i32 0, i32 1
  %93 = load i64, ptr %92, align 8, !tbaa !21
  %94 = or i64 %93, %91
  store i64 %94, ptr %92, align 8, !tbaa !21
  %95 = load ptr, ptr %14, align 8, !tbaa !11
  %96 = getelementptr inbounds nuw i8, ptr %95, i32 1
  store ptr %96, ptr %14, align 8, !tbaa !11
  br label %97

97:                                               ; preds = %55
  br label %98

98:                                               ; preds = %97
  %99 = getelementptr inbounds nuw %struct.H5HG_t, ptr %15, i32 0, i32 0
  %100 = load i64, ptr %99, align 8, !tbaa !19
  %101 = icmp ugt i64 %100, 0
  br i1 %101, label %102, label %126

102:                                              ; preds = %98
  %103 = load ptr, ptr %8, align 8, !tbaa !9
  %104 = call i32 @H5HG_remove(ptr noundef %103, ptr noundef %15)
  %105 = icmp slt i32 %104, 0
  br i1 %105, label %106, label %125

106:                                              ; preds = %102
  br label %107

107:                                              ; preds = %106
  br label %108

108:                                              ; preds = %107
  br label %109

109:                                              ; preds = %108
  %110 = load i64, ptr @H5E_VOL_g, align 8, !tbaa !7
  %111 = load i64, ptr @H5E_CANTREMOVE_g, align 8, !tbaa !7
  %112 = call i32 (ptr, ptr, i32, i64, i64, ptr, ...) @H5E_printf_stack(ptr noundef @.str, ptr noundef @__func__.H5VL__native_blob_specific, i32 noundef 188, i64 noundef %110, i64 noundef %111, ptr noundef @.str.5)
  br label %113

113:                                              ; preds = %109
  br label %114

114:                                              ; preds = %113
  store i8 1, ptr %10, align 1, !tbaa !15
  %115 = load i8, ptr %10, align 1, !tbaa !15, !range !17, !noundef !18
  %116 = trunc i8 %115 to i1
  %117 = zext i1 %116 to i8
  store i8 %117, ptr %10, align 1, !tbaa !15
  br label %118

118:                                              ; preds = %114
  br label %119

119:                                              ; preds = %118
  br label %120

120:                                              ; preds = %119
  store i32 -1, ptr %9, align 4, !tbaa !13
  store i32 15, ptr %16, align 4
  br label %127

121:                                              ; No predecessors!
  br label %122

122:                                              ; preds = %121
  br label %123

123:                                              ; preds = %122
  br label %124

124:                                              ; preds = %123
  br label %125

125:                                              ; preds = %124, %102
  br label %126

126:                                              ; preds = %125, %98
  store i32 2, ptr %16, align 4
  br label %127

127:                                              ; preds = %120, %126
  call void @llvm.lifetime.end.p0(i64 16, ptr %15) #3
  call void @llvm.lifetime.end.p0(i64 8, ptr %14) #3
  %128 = load i32, ptr %16, align 4
  switch i32 %128, label %151 [
    i32 2, label %148
    i32 15, label %149
  ]

129:                                              ; preds = %3
  br label %130

130:                                              ; preds = %129
  br label %131

131:                                              ; preds = %130
  br label %132

132:                                              ; preds = %131
  %133 = load i64, ptr @H5E_VOL_g, align 8, !tbaa !7
  %134 = load i64, ptr @H5E_UNSUPPORTED_g, align 8, !tbaa !7
  %135 = call i32 (ptr, ptr, i32, i64, i64, ptr, ...) @H5E_printf_stack(ptr noundef @.str, ptr noundef @__func__.H5VL__native_blob_specific, i32 noundef 194, i64 noundef %133, i64 noundef %134, ptr noundef @.str.6)
  br label %136

136:                                              ; preds = %132
  br label %137

137:                                              ; preds = %136
  store i8 1, ptr %10, align 1, !tbaa !15
  %138 = load i8, ptr %10, align 1, !tbaa !15, !range !17, !noundef !18
  %139 = trunc i8 %138 to i1
  %140 = zext i1 %139 to i8
  store i8 %140, ptr %10, align 1, !tbaa !15
  br label %141

141:                                              ; preds = %137
  br label %142

142:                                              ; preds = %141
  br label %143

143:                                              ; preds = %142
  store i32 -1, ptr %9, align 4, !tbaa !13
  br label %149

144:                                              ; No predecessors!
  br label %145

145:                                              ; preds = %144
  br label %146

146:                                              ; preds = %145
  br label %147

147:                                              ; preds = %146
  br label %148

148:                                              ; preds = %147, %127, %50, %21
  br label %149

149:                                              ; preds = %148, %127, %143
  %150 = load i32, ptr %9, align 4, !tbaa !13
  store i32 %150, ptr %4, align 4
  store i32 1, ptr %16, align 4
  br label %151

151:                                              ; preds = %149, %127
  call void @llvm.lifetime.end.p0(i64 1, ptr %10) #3
  call void @llvm.lifetime.end.p0(i64 4, ptr %9) #3
  call void @llvm.lifetime.end.p0(i64 8, ptr %8) #3
  %152 = load i32, ptr %4, align 4
  ret i32 %152
}