; Function Attrs: nounwind uwtable
define range(i32 -1, 1) i32 @H5VL__native_blob_specific(ptr noundef %0, ptr noundef %1, ptr noundef readonly captures(none) %2) local_unnamed_addr #0 {
  %4 = alloca ptr, align 8
  %5 = alloca i64, align 8
  %6 = alloca ptr, align 8
  %7 = alloca ptr, align 8
  %8 = alloca %struct.H5HG_t, align 8
  %9 = load i32, ptr %2, align 8, !tbaa !14
  switch i32 %9, label %54 [
    i32 1, label %10
    i32 2, label %16
    i32 0, label %24
  ]

10:                                               ; preds = %3
  call void @llvm.lifetime.start.p0(i64 8, ptr nonnull %4) #3
  store ptr %1, ptr %4, align 8, !tbaa !3
  call void @llvm.lifetime.start.p0(i64 8, ptr nonnull %5) #3
  call void @H5F_addr_decode(ptr noundef %0, ptr noundef nonnull %4, ptr noundef nonnull %5) #3
  %11 = load i64, ptr %5, align 8, !tbaa !8
  %12 = icmp eq i64 %11, 0
  %13 = getelementptr inbounds nuw i8, ptr %2, i64 8
  %14 = load ptr, ptr %13, align 8, !tbaa !13
  %15 = zext i1 %12 to i8
  store i8 %15, ptr %14, align 1, !tbaa !17
  call void @llvm.lifetime.end.p0(i64 8, ptr nonnull %5) #3
  call void @llvm.lifetime.end.p0(i64 8, ptr nonnull %4) #3
  br label %58

16:                                               ; preds = %3
  call void @llvm.lifetime.start.p0(i64 8, ptr nonnull %6) #3
  store ptr %1, ptr %6, align 8, !tbaa !3
  call void @H5F_addr_encode(ptr noundef %0, ptr noundef nonnull %6, i64 noundef 0) #3
  %17 = load ptr, ptr %6, align 8, !tbaa !3
  store i8 0, ptr %17, align 1, !tbaa !13
  %18 = load ptr, ptr %6, align 8, !tbaa !3
  %19 = getelementptr inbounds nuw i8, ptr %18, i64 1
  store ptr %19, ptr %6, align 8, !tbaa !3
  store i8 0, ptr %19, align 1, !tbaa !13
  %20 = load ptr, ptr %6, align 8, !tbaa !3
  %21 = getelementptr inbounds nuw i8, ptr %20, i64 1
  store ptr %21, ptr %6, align 8, !tbaa !3
  store i8 0, ptr %21, align 1, !tbaa !13
  %22 = load ptr, ptr %6, align 8, !tbaa !3
  %23 = getelementptr inbounds nuw i8, ptr %22, i64 1
  store i8 0, ptr %23, align 1, !tbaa !13
  call void @llvm.lifetime.end.p0(i64 8, ptr nonnull %6) #3
  br label %58

24:                                               ; preds = %3
  call void @llvm.lifetime.start.p0(i64 8, ptr nonnull %7) #3
  store ptr %1, ptr %7, align 8, !tbaa !3
  call void @llvm.lifetime.start.p0(i64 16, ptr nonnull %8) #3
  call void @H5F_addr_decode(ptr noundef %0, ptr noundef nonnull %7, ptr noundef nonnull %8) #3
  %25 = load ptr, ptr %7, align 8, !tbaa !3
  %26 = load i8, ptr %25, align 1, !tbaa !13
  %27 = zext i8 %26 to i64
  %28 = getelementptr inbounds nuw i8, ptr %8, i64 8
  store i64 %27, ptr %28, align 8, !tbaa !12
  %29 = getelementptr inbounds nuw i8, ptr %25, i64 1
  store ptr %29, ptr %7, align 8, !tbaa !3
  %30 = load i8, ptr %29, align 1, !tbaa !13
  %31 = zext i8 %30 to i64
  %32 = shl nuw nsw i64 %31, 8
  %33 = or disjoint i64 %32, %27
  store i64 %33, ptr %28, align 8, !tbaa !12
  %34 = getelementptr inbounds nuw i8, ptr %25, i64 2
  store ptr %34, ptr %7, align 8, !tbaa !3
  %35 = load i8, ptr %34, align 1, !tbaa !13
  %36 = zext i8 %35 to i64
  %37 = shl nuw nsw i64 %36, 16
  %38 = or disjoint i64 %37, %33
  store i64 %38, ptr %28, align 8, !tbaa !12
  %39 = getelementptr inbounds nuw i8, ptr %25, i64 3
  store ptr %39, ptr %7, align 8, !tbaa !3
  %40 = load i8, ptr %39, align 1, !tbaa !13
  %41 = zext i8 %40 to i64
  %42 = shl nuw nsw i64 %41, 24
  %43 = or disjoint i64 %42, %38
  store i64 %43, ptr %28, align 8, !tbaa !12
  %44 = getelementptr inbounds nuw i8, ptr %25, i64 4
  store ptr %44, ptr %7, align 8, !tbaa !3
  %45 = load i64, ptr %8, align 8, !tbaa !10
  %.not = icmp eq i64 %45, 0
  br i1 %.not, label %53, label %46

46:                                               ; preds = %24
  %47 = call i32 @H5HG_remove(ptr noundef %0, ptr noundef nonnull %8) #3
  %48 = icmp slt i32 %47, 0
  br i1 %48, label %49, label %53

49:                                               ; preds = %46
  %50 = load i64, ptr @H5E_VOL_g, align 8, !tbaa !8
  %51 = load i64, ptr @H5E_CANTREMOVE_g, align 8, !tbaa !8
  %52 = call i32 (ptr, ptr, i32, i64, i64, ptr, ...) @H5E_printf_stack(ptr noundef nonnull @.str, ptr noundef nonnull @__func__.H5VL__native_blob_specific, i32 noundef 188, i64 noundef %50, i64 noundef %51, ptr noundef nonnull @.str.5) #3
  br label %53

53:                                               ; preds = %24, %46, %49
  %.014 = phi i32 [ -1, %49 ], [ 0, %46 ], [ 0, %24 ]
  call void @llvm.lifetime.end.p0(i64 16, ptr nonnull %8) #3
  call void @llvm.lifetime.end.p0(i64 8, ptr nonnull %7) #3
  br label %58

54:                                               ; preds = %3
  %55 = load i64, ptr @H5E_VOL_g, align 8, !tbaa !8
  %56 = load i64, ptr @H5E_UNSUPPORTED_g, align 8, !tbaa !8
  %57 = tail call i32 (ptr, ptr, i32, i64, i64, ptr, ...) @H5E_printf_stack(ptr noundef nonnull @.str, ptr noundef nonnull @__func__.H5VL__native_blob_specific, i32 noundef 194, i64 noundef %55, i64 noundef %56, ptr noundef nonnull @.str.6) #3
  br label %58

58:                                               ; preds = %53, %54, %16, %10
  %.015 = phi i32 [ -1, %54 ], [ %.014, %53 ], [ 0, %16 ], [ 0, %10 ]
  ret i32 %.015
}